target datalayout = "e-m:e-p270:32:32-p271:32:32-p272:64:64-i64:64-i128:128-f80:128-n8:16:32:64-S128"
target triple = "x86_64-pc-linux-gnu"

%struct.PaPulseAudio_HostApiRepresentation = type { %struct.PaUtilHostApiRepresentation, %struct.PaUtilStreamInterface, %struct.PaUtilStreamInterface, ptr, i32, [1024 x %struct.PaDeviceInfo], [1024 x ptr], %struct.pa_sample_spec, ptr, ptr, ptr, i32, ptr }
%struct.PaUtilHostApiRepresentation = type { %struct.PaUtilPrivatePaFrontHostApiInfo, %struct.PaHostApiInfo, ptr, ptr, ptr, ptr }
%struct.PaUtilPrivatePaFrontHostApiInfo = type { i64 }
%struct.PaHostApiInfo = type { i32, i32, ptr, i32, i32, i32 }
%struct.PaUtilStreamInterface = type { ptr, ptr, ptr, ptr, ptr, ptr, ptr, ptr, ptr, ptr, ptr, ptr }
%struct.PaDeviceInfo = type { i32, ptr, i32, i32, i32, double, double, double, double, double }
%struct.pa_sample_spec = type { i32, i32, i8 }
%struct.PaPulseAudio_Stream = type { %struct.PaUtilStreamRepresentation, %struct.PaUtilCpuLoadMeasurer, %struct.PaUtilBufferProcessor, ptr, i64, ptr, ptr, %struct.pa_sample_spec, %struct.pa_sample_spec, ptr, ptr, %struct.pa_buffer_attr, %struct.pa_buffer_attr, i32, i32, i32, i32, i64, i64, i32, i32, i32, i32, ptr, ptr, %struct.PaUtilRingBuffer, i64, i32, i32, i32, i32 }
%struct.PaUtilStreamRepresentation = type { i64, ptr, ptr, ptr, ptr, ptr, %struct.PaStreamInfo }
%struct.PaStreamInfo = type { i32, double, double, double }
%struct.PaUtilCpuLoadMeasurer = type { double, double, double }
%struct.PaUtilBufferProcessor = type { i64, i64, i32, i32, i32, i32, i64, i32, i32, i32, i32, ptr, ptr, i32, i32, i32, i32, ptr, ptr, i64, i64, ptr, ptr, i64, ptr, ptr, i64, ptr, i64, i32, [2 x i64], [2 x ptr], i32, [2 x i64], [2 x ptr], %struct.PaUtilTriangularDitherGenerator, double, ptr, ptr }
%struct.PaUtilTriangularDitherGenerator = type { i32, i32, i32 }
%struct.pa_buffer_attr = type { i32, i32, i32, i32, i32 }
%struct.PaUtilRingBuffer = type { i64, i64, i64, i64, i64, i64, ptr }
%struct.PaStreamCallbackTimeInfo = type { double, double, double }

; Function Attrs: nounwind uwtable
define double @GetStreamTime(ptr noundef %0) #0 {
  %2 = alloca double, align 8
  %3 = alloca ptr, align 8
  %4 = alloca ptr, align 8
  %5 = alloca ptr, align 8
  %6 = alloca %struct.PaStreamCallbackTimeInfo, align 8
  store ptr %0, ptr %3, align 8
  %7 = load ptr, ptr %3, align 8
  store ptr %7, ptr %4, align 8
  %8 = load ptr, ptr %4, align 8
  %9 = getelementptr inbounds nuw %struct.PaPulseAudio_Stream, ptr %8, i32 0, i32 3
  %10 = load ptr, ptr %9, align 8
  store ptr %10, ptr %5, align 8
  call void @llvm.memset.p0.i64(ptr align 8 %6, i8 0, i64 24, i1 false)
  %11 = load ptr, ptr %5, align 8
  %12 = getelementptr inbounds nuw %struct.PaPulseAudio_HostApiRepresentation, ptr %11, i32 0, i32 8
  %13 = load ptr, ptr %12, align 8
  call void @PaPulseAudio_Lock(ptr noundef %13)
  %14 = load ptr, ptr %4, align 8
  %15 = getelementptr inbounds nuw %struct.PaPulseAudio_Stream, ptr %14, i32 0, i32 9
  %16 = load ptr, ptr %15, align 8
  %17 = icmp ne ptr %16, null
  br i1 %17, label %18, label %26

18:                                               ; preds = %1
  %19 = load ptr, ptr %4, align 8
  %20 = getelementptr inbounds nuw %struct.PaPulseAudio_Stream, ptr %19, i32 0, i32 9
  %21 = load ptr, ptr %20, align 8
  %22 = call i32 @PaPulseAudio_updateTimeInfo(ptr noundef %21, ptr noundef %6, i32 noundef 0)
  %23 = icmp eq i32 %22, -16
  br i1 %23, label %24, label %25

24:                                               ; preds = %18
  store double 0.000000e+00, ptr %2, align 8
  br label %45

25:                                               ; preds = %18
  br label %26

26:                                               ; preds = %25, %1
  %27 = load ptr, ptr %4, align 8
  %28 = getelementptr inbounds nuw %struct.PaPulseAudio_Stream, ptr %27, i32 0, i32 10
  %29 = load ptr, ptr %28, align 8
  %30 = icmp ne ptr %29, null
  br i1 %30, label %31, label %39

31:                                               ; preds = %26
  %32 = load ptr, ptr %4, align 8
  %33 = getelementptr inbounds nuw %struct.PaPulseAudio_Stream, ptr %32, i32 0, i32 10
  %34 = load ptr, ptr %33, align 8
  %35 = call i32 @PaPulseAudio_updateTimeInfo(ptr noundef %34, ptr noundef %6, i32 noundef 1)
  %36 = icmp eq i32 %35, -16
  br i1 %36, label %37, label %38

37:                                               ; preds = %31
  store double 0.000000e+00, ptr %2, align 8
  br label %45

38:                                               ; preds = %31
  br label %39

39:                                               ; preds = %38, %26
  %40 = load ptr, ptr %5, align 8
  %41 = getelementptr inbounds nuw %struct.PaPulseAudio_HostApiRepresentation, ptr %40, i32 0, i32 8
  %42 = load ptr, ptr %41, align 8
  call void @PaPulseAudio_UnLock(ptr noundef %42)
  %43 = getelementptr inbounds nuw %struct.PaStreamCallbackTimeInfo, ptr %6, i32 0, i32 1
  %44 = load double, ptr %43, align 8
  store double %44, ptr %2, align 8
  br label %45

45:                                               ; preds = %39, %37, %24
  %46 = load double, ptr %2, align 8
  ret double %46
}