; Function Attrs: nounwind uwtable
define double @GetStreamTime(ptr nocapture noundef readonly %0) #0 {
  %2 = alloca %struct.PaStreamCallbackTimeInfo, align 8
  %3 = getelementptr inbounds nuw i8, ptr %0, i64 408
  %4 = load ptr, ptr %3, align 8
  call void @llvm.memset.p0.i64(ptr noundef nonnull align 8 dereferenceable(24) %2, i8 0, i64 24, i1 false)
  %5 = getelementptr inbounds nuw i8, ptr %4, i64 82216
  %6 = load ptr, ptr %5, align 8
  tail call void @PaPulseAudio_Lock(ptr noundef %6) #13
  %7 = getelementptr inbounds nuw i8, ptr %0, i64 464
  %8 = load ptr, ptr %7, align 8
  %.not = icmp eq ptr %8, null
  br i1 %.not, label %12, label %9

9:                                                ; preds = %1
  %10 = call i32 @PaPulseAudio_updateTimeInfo(ptr noundef nonnull %8, ptr noundef nonnull %2, i32 noundef 0) #13
  %11 = icmp eq i32 %10, -16
  br i1 %11, label %22, label %12

12:                                               ; preds = %9, %1
  %13 = getelementptr inbounds nuw i8, ptr %0, i64 472
  %14 = load ptr, ptr %13, align 8
  %.not11 = icmp eq ptr %14, null
  br i1 %.not11, label %18, label %15

15:                                               ; preds = %12
  %16 = call i32 @PaPulseAudio_updateTimeInfo(ptr noundef nonnull %14, ptr noundef nonnull %2, i32 noundef 1) #13
  %17 = icmp eq i32 %16, -16
  br i1 %17, label %22, label %18

18:                                               ; preds = %15, %12
  %19 = load ptr, ptr %5, align 8
  call void @PaPulseAudio_UnLock(ptr noundef %19) #13
  %20 = getelementptr inbounds nuw i8, ptr %2, i64 8
  %21 = load double, ptr %20, align 8
  br label %22

22:                                               ; preds = %15, %9, %18
  %.0 = phi double [ %21, %18 ], [ 0.000000e+00, %9 ], [ 0.000000e+00, %15 ]
  ret double %.0
}